c__builtin__
set
p0
((lp1
(S'head_tilt_link'
p2
S'hand_r_distal_link'
p3
tp4
a(S'hand_l_spring_proximal_link'
p5
S'base_link'
p6
tp7
a(S'arm_lift_link'
p8
S'head_pan_link'
p9
tp10
a(g8
g2
tp11
a(S'hand_l_distal_link'
p12
S'base_r_passive_wheel_z_link'
p13
tp14
a(g12
g6
tp15
a(g5
g2
tp16
a(g6
g3
tp17
a(S'arm_roll_link'
p18
g6
tp19
a(g6
S'hand_palm_link'
p20
tp21
a(S'wrist_roll_link'
p22
g6
tp23
a(g6
S'hand_r_spring_proximal_link'
p24
tp25
a(g20
g2
tp26
a(g12
g2
tp27
atp28
Rp29
.