c__builtin__
set
p0
((lp1
(S'l_wrist_roll_link'
p2
S'r_gripper_r_finger_link'
p3
tp4
a(S'l_shoulder_lift_link'
p5
S'r_forearm_link'
p6
tp7
a(S'br_caster_rotation_link'
p8
S'r_gripper_palm_link'
p9
tp10
a(S'fl_caster_l_wheel_link'
p11
S'l_gripper_r_finger_link'
p12
tp13
a(S'torso_lift_link'
p14
S'r_wrist_flex_link'
p15
tp16
a(S'r_upper_arm_link'
p17
S'r_gripper_l_finger_link'
p18
tp19
a(S'l_upper_arm_link'
p20
S'r_upper_arm_roll_link'
p21
tp22
a(S'r_gripper_l_finger_tip_link'
p23
S'l_forearm_roll_link'
p24
tp25
a(g5
S'l_gripper_l_finger_tip_link'
p26
tp27
a(S'base_link'
p28
S'r_forearm_roll_link'
p29
tp30
a(S'l_gripper_palm_link'
p31
S'r_gripper_r_finger_tip_link'
p32
tp33
a(g6
S'r_shoulder_pan_link'
p34
tp35
a(g31
S'bl_caster_l_wheel_link'
p36
tp37
a(S'l_shoulder_pan_link'
p38
g21
tp39
a(g20
g18
tp40
a(g31
S'fl_caster_rotation_link'
p41
tp42
a(S'r_wrist_roll_link'
p43
g14
tp44
a(g26
S'fr_caster_rotation_link'
p45
tp46
a(S'l_wrist_flex_link'
p47
g34
tp48
a(S'l_gripper_l_finger_link'
p49
g34
tp50
a(g9
g28
tp51
a(S'bl_caster_r_wheel_link'
p52
g49
tp53
a(g11
S'l_gripper_r_finger_tip_link'
p54
tp55
a(S'l_gripper_motor_accelerometer_link'
p56
g34
tp57
a(g23
g28
tp58
a(g23
S'r_shoulder_lift_link'
p59
tp60
a(g56
g14
tp61
a(g14
g21
tp62
a(g24
g15
tp63
a(g18
S'head_pan_link'
p64
tp65
a(g2
g34
tp66
a(g47
g28
tp67
a(g17
g2
tp68
a(S'l_elbow_flex_link'
p69
g3
tp70
a(g9
g34
tp71
a(S'l_forearm_link'
p72
g14
tp73
a(g23
g34
tp74
a(g20
g32
tp75
a(S'head_tilt_link'
p76
g18
tp77
a(g20
S'r_elbow_flex_link'
p78
tp79
a(g47
g21
tp80
a(g49
S'bl_caster_rotation_link'
p81
tp82
a(S'laser_tilt_mount_link'
p83
g3
tp84
a(g31
g38
tp85
a(g49
g45
tp86
a(g76
g32
tp87
a(g11
g72
tp88
a(g38
g69
tp89
a(g31
g34
tp90
a(g38
g56
tp91
a(g12
g59
tp92
a(g17
g28
tp93
a(g20
g23
tp94
a(g18
g14
tp95
a(S'fr_caster_l_wheel_link'
p96
g15
tp97
a(g8
g18
tp98
a(g17
g69
tp99
a(g32
g83
tp100
a(g23
g45
tp101
a(g69
g15
tp102
a(g72
g78
tp103
a(g6
g38
tp104
a(g34
S'l_upper_arm_roll_link'
p105
tp106
a(g69
g29
tp107
a(g47
g9
tp108
a(g18
g38
tp109
a(g38
g59
tp110
a(g38
S'r_gripper_motor_accelerometer_link'
p111
tp112
a(g18
g96
tp113
a(g17
g72
tp114
a(g20
g59
tp115
a(g20
g29
tp116
a(g28
g3
tp117
a(g6
S'fr_caster_r_wheel_link'
p118
tp119
a(S'fl_caster_r_wheel_link'
p120
g49
tp121
a(g18
g45
tp122
a(g23
g69
tp123
a(S'base_bellow_link'
p124
g31
tp125
a(g18
g59
tp126
a(g47
g41
tp127
a(g124
g54
tp128
a(g23
g64
tp129
a(g18
g21
tp130
a(g26
g41
tp131
a(g24
g29
tp132
a(g23
g21
tp133
a(g105
g21
tp134
a(g72
g15
tp135
a(g31
g120
tp136
a(g38
g72
tp137
a(g6
g12
tp138
a(g56
g41
tp139
a(g17
g24
tp140
a(g47
g38
tp141
a(g54
g64
tp142
a(g72
g81
tp143
a(g120
g72
tp144
a(g9
g72
tp145
a(g72
g36
tp146
a(g12
g105
tp147
a(g38
g2
tp148
a(g32
g34
tp149
a(g31
g81
tp150
a(g34
g3
tp151
a(g23
g14
tp152
a(g54
g118
tp153
a(g26
g36
tp154
a(g76
g6
tp155
a(g2
g41
tp156
a(g17
g105
tp157
a(g59
g72
tp158
a(g9
g69
tp159
a(g17
g26
tp160
a(g38
g26
tp161
a(g5
g43
tp162
a(g26
g64
tp163
a(g6
g83
tp164
a(g23
g17
tp165
a(g5
g34
tp166
a(g24
g3
tp167
a(g54
g14
tp168
a(g20
g26
tp169
a(g54
g81
tp170
a(g32
g21
tp171
a(g49
g105
tp172
a(g54
g41
tp173
a(g12
g34
tp174
a(g72
g45
tp175
a(g6
g69
tp176
a(g45
g3
tp177
a(g18
g83
tp178
a(g21
g3
tp179
a(g105
g3
tp180
a(g43
g28
tp181
a(g9
g105
tp182
a(g124
g12
tp183
a(g20
g9
tp184
a(g9
g96
tp185
a(g26
g118
tp186
a(g43
g45
tp187
a(g12
g41
tp188
a(g43
g34
tp189
a(g45
g111
tp190
a(g47
g14
tp191
a(g38
g54
tp192
a(g59
g105
tp193
a(g59
g2
tp194
a(g32
g24
tp195
a(g5
g9
tp196
a(g14
g3
tp197
a(g47
g81
tp198
a(g6
g54
tp199
a(g20
g54
tp200
a(g47
g59
tp201
a(g45
g15
tp202
a(g20
g17
tp203
a(g69
g28
tp204
a(g59
g3
tp205
a(g47
g3
tp206
a(g18
g28
tp207
a(g20
g31
tp208
a(g54
g34
tp209
a(g12
g52
tp210
a(g23
g105
tp211
a(g31
g3
tp212
a(g5
g32
tp213
a(g18
g34
tp214
a(g54
g28
tp215
a(g12
g64
tp216
a(g28
g49
tp217
a(g31
g6
tp218
a(g8
g6
tp219
a(g31
g59
tp220
a(g120
g12
tp221
a(g6
g14
tp222
a(g6
g96
tp223
a(g5
g111
tp224
a(g12
g81
tp225
a(g31
g28
tp226
a(g12
g118
tp227
a(g76
g15
tp228
a(g64
g49
tp229
a(g59
g49
tp230
a(g72
g29
tp231
a(g5
g15
tp232
a(g6
g26
tp233
a(g6
g105
tp234
a(g2
g14
tp235
a(g12
g28
tp236
a(g54
g59
tp237
a(g24
g78
tp238
a(g5
g49
tp239
a(g32
g28
tp240
a(g9
g64
tp241
a(g72
g34
tp242
a(g64
g3
tp243
a(g6
g64
tp244
a(g5
g23
tp245
a(g23
g38
tp246
a(g49
g36
tp247
a(g17
g32
tp248
a(g6
g24
tp249
a(g20
g15
tp250
a(g49
g14
tp251
a(g49
g21
tp252
a(g34
g78
tp253
a(g38
g12
tp254
a(g32
g41
tp255
a(g47
g17
tp256
a(g38
g15
tp257
a(g31
g52
tp258
a(g14
g111
tp259
a(g31
g21
tp260
a(g20
g111
tp261
a(g20
g12
tp262
a(g28
g56
tp263
a(g5
g3
tp264
a(g26
g105
tp265
a(g9
g14
tp266
a(g20
g34
tp267
a(g5
g18
tp268
a(g12
g14
tp269
a(g124
g49
tp270
a(g18
g69
tp271
a(g32
g105
tp272
a(g38
g34
tp273
a(g47
g6
tp274
a(g9
g38
tp275
a(g38
g43
tp276
a(g54
g52
tp277
a(g24
g28
tp278
a(g34
g15
tp279
a(g124
g26
tp280
a(g47
g45
tp281
a(g28
g78
tp282
a(g18
g24
tp283
a(g31
g64
tp284
a(g26
g59
tp285
a(g20
g43
tp286
a(g41
g3
tp287
a(g9
g45
tp288
a(g34
g111
tp289
a(g26
g28
tp290
a(g69
g78
tp291
a(g32
g69
tp292
a(g5
g17
tp293
a(g26
g14
tp294
a(g118
g15
tp295
a(g69
g43
tp296
a(g72
g3
tp297
a(g14
g105
tp298
a(g76
g3
tp299
a(g17
g12
tp300
a(g32
g38
tp301
a(g32
g59
tp302
a(g54
g45
tp303
a(g32
g64
tp304
a(g12
g36
tp305
a(g8
g32
tp306
a(g23
g8
tp307
a(g17
g38
tp308
a(g76
g43
tp309
a(g17
g49
tp310
a(g31
g14
tp311
a(g72
g43
tp312
a(g28
g15
tp313
a(g11
g31
tp314
a(g18
g72
tp315
a(g17
g54
tp316
a(g72
g28
tp317
a(g32
g72
tp318
a(g6
g72
tp319
a(g32
g45
tp320
a(g2
g21
tp321
a(g47
g120
tp322
a(g49
g118
tp323
a(g2
g28
tp324
a(g9
g83
tp325
a(g26
g34
tp326
a(g20
g3
tp327
a(g31
g17
tp328
a(g26
g52
tp329
a(g76
g9
tp330
a(g28
g111
tp331
a(g41
g49
tp332
a(g11
g47
tp333
a(g38
g3
tp334
a(g20
g6
tp335
a(g38
g24
tp336
a(g72
g21
tp337
a(g5
g54
tp338
a(g23
g118
tp339
a(g12
g45
tp340
a(g17
g3
tp341
a(g9
g24
tp342
a(g20
g28
tp343
a(g23
g72
tp344
a(g32
g14
tp345
a(g31
g45
tp346
a(g11
g26
tp347
a(g54
g105
tp348
a(g6
g49
tp349
a(g5
g12
tp350
a(g17
g56
tp351
a(g6
g45
tp352
a(g26
g81
tp353
a(g23
g83
tp354
a(g18
g105
tp355
a(g29
g34
tp356
a(g20
g49
tp357
a(g12
g83
tp358
a(g59
g56
tp359
a(g38
g49
tp360
a(g6
g28
tp361
a(g72
g41
tp362
atp363
Rp364
.